; Function Attrs: nounwind uwtable
define internal void @ReceiveTarCopyChunk(i64 noundef %0, ptr noundef %1, ptr noundef readonly captures(none) %2) #0 {
  %4 = getelementptr inbounds nuw i8, ptr %2, i64 8
  %5 = load ptr, ptr %4, align 8
  %6 = trunc i64 %0 to i32
  %7 = load ptr, ptr %5, align 8
  %8 = load ptr, ptr %7, align 8
  tail call void %8(ptr noundef nonnull %5, ptr noundef null, ptr noundef %1, i32 noundef %6, i32 noundef 0) #17
  %9 = load i64, ptr @totaldone, align 8
  %10 = add i64 %9, %0
  store i64 %10, ptr @totaldone, align 8
  %11 = load i32, ptr %2, align 8
  tail call fastcc void @progress_report(i32 noundef %11, i1 noundef zeroext false, i1 noundef zeroext false)
  ret void
}